decode:     file format elf32-littleriscv


Disassembly of section .text:

80000000 <decode>:
80000000:	00400793          	li	a5,4
80000004:	00b7e663          	bltu	a5,a1,80000010 <begin>
80000008:	00000513          	li	a0,0
8000000c:	00008067          	ret

80000010 <begin>:
80000010:	f8010113          	addi	sp,sp,-128
80000014:	06c12023          	sw	a2,96(sp)
80000018:	04d12223          	sw	a3,68(sp)
8000001c:	04112423          	sw	ra,72(sp)
80000020:	00052783          	lw	a5,0(a0)
80000024:	04a12e23          	sw	a0,92(sp)
80000028:	04b12023          	sw	a1,64(sp)
8000002c:	01c7d713          	srli	a4,a5,0x1c
80000030:	00e12c23          	sw	a4,24(sp)
80000034:	00479713          	slli	a4,a5,0x4
80000038:	01c75713          	srli	a4,a4,0x1c
8000003c:	00e12e23          	sw	a4,28(sp)
80000040:	00879713          	slli	a4,a5,0x8
80000044:	01c75713          	srli	a4,a4,0x1c
80000048:	00e12823          	sw	a4,16(sp)
8000004c:	00c79713          	slli	a4,a5,0xc
80000050:	01c75713          	srli	a4,a4,0x1c
80000054:	00e12a23          	sw	a4,20(sp)
80000058:	01079713          	slli	a4,a5,0x10
8000005c:	01c75713          	srli	a4,a4,0x1c
80000060:	00e12423          	sw	a4,8(sp)
80000064:	01479713          	slli	a4,a5,0x14
80000068:	01c75713          	srli	a4,a4,0x1c
8000006c:	00e12623          	sw	a4,12(sp)
80000070:	01879713          	slli	a4,a5,0x18
80000074:	01c75713          	srli	a4,a4,0x1c
80000078:	00e12023          	sw	a4,0(sp)
8000007c:	00f7f713          	andi	a4,a5,15
80000080:	00e12223          	sw	a4,4(sp)
80000084:	02010613          	addi	a2,sp,32
80000088:	00000693          	li	a3,0
8000008c:	00000713          	li	a4,0

80000090 <loopi>:
80000090:	00000713          	li	a4,0

80000094 <loopj>:
80000094:	00e105b3          	add	a1,sp,a4
80000098:	0005a583          	lw	a1,0(a1)
8000009c:	00b68c63          	beq	a3,a1,800000b4 <iupdate>
800000a0:	00470713          	addi	a4,a4,4
800000a4:	02000513          	li	a0,32
800000a8:	fea766e3          	bltu	a4,a0,80000094 <loopj>
800000ac:	00d62023          	sw	a3,0(a2)
800000b0:	00460613          	addi	a2,a2,4

800000b4 <iupdate>:
800000b4:	00168693          	addi	a3,a3,1
800000b8:	01000513          	li	a0,16
800000bc:	fca6eae3          	bltu	a3,a0,80000090 <loopi>

800000c0 <rank_done>:
800000c0:	05c12503          	lw	a0,92(sp)
800000c4:	04012583          	lw	a1,64(sp)
800000c8:	00450513          	addi	a0,a0,4
800000cc:	00052683          	lw	a3,0(a0)
800000d0:	00450513          	addi	a0,a0,4
800000d4:	04a12e23          	sw	a0,92(sp)
800000d8:	0186d713          	srli	a4,a3,0x18
800000dc:	01869793          	slli	a5,a3,0x18
800000e0:	00f767b3          	or	a5,a4,a5
800000e4:	00ff0637          	lui	a2,0xff0
800000e8:	00c6f733          	and	a4,a3,a2
800000ec:	00875713          	srli	a4,a4,0x8
800000f0:	00e7e7b3          	or	a5,a5,a4
800000f4:	00869693          	slli	a3,a3,0x8
800000f8:	00c6f733          	and	a4,a3,a2
800000fc:	00e7e7b3          	or	a5,a5,a4
80000100:	02000713          	li	a4,32
80000104:	04e12a23          	sw	a4,84(sp)
80000108:	01c7d613          	srli	a2,a5,0x1c
8000010c:	00359593          	slli	a1,a1,0x3
80000110:	00479793          	slli	a5,a5,0x4
80000114:	40c585b3          	sub	a1,a1,a2
80000118:	fdc58593          	addi	a1,a1,-36
8000011c:	01c00613          	li	a2,28

80000120 <decoding_loop>:
80000120:	00000513          	li	a0,0
80000124:	00500693          	li	a3,5
80000128:	80000737          	lui	a4,0x80000
8000012c:	04d66663          	bltu	a2,a3,80000178 <inbuf_4bit>
80000130:	00e7fc63          	bgeu	a5,a4,80000148 <_4or5bit>
80000134:	01d7d513          	srli	a0,a5,0x1d
80000138:	ffd60613          	addi	a2,a2,-3 # fefffd <decode-0x7f010003>
8000013c:	ffd58593          	addi	a1,a1,-3
80000140:	00379793          	slli	a5,a5,0x3
80000144:	388000ef          	jal	ra,800004cc <match_with_rank>

80000148 <_4or5bit>:
80000148:	c0000737          	lui	a4,0xc0000
8000014c:	00e7fc63          	bgeu	a5,a4,80000164 <_5bit>
80000150:	01c7d513          	srli	a0,a5,0x1c
80000154:	ffc60613          	addi	a2,a2,-4
80000158:	ffc58593          	addi	a1,a1,-4
8000015c:	00479793          	slli	a5,a5,0x4
80000160:	36c000ef          	jal	ra,800004cc <match_with_rank>

80000164 <_5bit>:
80000164:	01b7d513          	srli	a0,a5,0x1b
80000168:	ffb60613          	addi	a2,a2,-5
8000016c:	ffb58593          	addi	a1,a1,-5
80000170:	00579793          	slli	a5,a5,0x5
80000174:	358000ef          	jal	ra,800004cc <match_with_rank>

80000178 <inbuf_4bit>:
80000178:	00400693          	li	a3,4
8000017c:	08d61863          	bne	a2,a3,8000020c <inbuf_3bit>
80000180:	00e7fc63          	bgeu	a5,a4,80000198 <__4or5bit>
80000184:	01d7d513          	srli	a0,a5,0x1d
80000188:	ffd60613          	addi	a2,a2,-3
8000018c:	ffd58593          	addi	a1,a1,-3
80000190:	00379793          	slli	a5,a5,0x3
80000194:	338000ef          	jal	ra,800004cc <match_with_rank>

80000198 <__4or5bit>:
80000198:	c00006b7          	lui	a3,0xc0000
8000019c:	00d7fa63          	bgeu	a5,a3,800001b0 <__5bit>
800001a0:	01c7d513          	srli	a0,a5,0x1c
800001a4:	ffc58593          	addi	a1,a1,-4
800001a8:	ffc60613          	addi	a2,a2,-4
800001ac:	320000ef          	jal	ra,800004cc <match_with_rank>

800001b0 <__5bit>:
800001b0:	01b7d513          	srli	a0,a5,0x1b
800001b4:	05c12703          	lw	a4,92(sp)
800001b8:	00072683          	lw	a3,0(a4) # c0000000 <_end+0x3ffefec8>
800001bc:	00470713          	addi	a4,a4,4
800001c0:	04e12e23          	sw	a4,92(sp)
800001c4:	0186d713          	srli	a4,a3,0x18
800001c8:	01869793          	slli	a5,a3,0x18
800001cc:	00f767b3          	or	a5,a4,a5
800001d0:	00ff0637          	lui	a2,0xff0
800001d4:	00c6f733          	and	a4,a3,a2
800001d8:	00875713          	srli	a4,a4,0x8
800001dc:	00e7e7b3          	or	a5,a5,a4
800001e0:	00869693          	slli	a3,a3,0x8
800001e4:	00c6f733          	and	a4,a3,a2
800001e8:	00e7e7b3          	or	a5,a5,a4
800001ec:	02000613          	li	a2,32
800001f0:	80000737          	lui	a4,0x80000
800001f4:	00e7e463          	bltu	a5,a4,800001fc <dontadd>
800001f8:	00150513          	addi	a0,a0,1

800001fc <dontadd>:
800001fc:	00179793          	slli	a5,a5,0x1
80000200:	fff60613          	addi	a2,a2,-1 # feffff <decode-0x7f010001>
80000204:	ffb58593          	addi	a1,a1,-5
80000208:	2c4000ef          	jal	ra,800004cc <match_with_rank>

8000020c <inbuf_3bit>:
8000020c:	00300693          	li	a3,3
80000210:	0cd61a63          	bne	a2,a3,800002e4 <inbuf_2bit>
80000214:	00e7fa63          	bgeu	a5,a4,80000228 <_4or5bit_>
80000218:	01d7d513          	srli	a0,a5,0x1d
8000021c:	ffd58593          	addi	a1,a1,-3
80000220:	ffd60613          	addi	a2,a2,-3
80000224:	2a8000ef          	jal	ra,800004cc <match_with_rank>

80000228 <_4or5bit_>:
80000228:	c00006b7          	lui	a3,0xc0000
8000022c:	06d7f063          	bgeu	a5,a3,8000028c <_5bit_>
80000230:	01c7d513          	srli	a0,a5,0x1c
80000234:	05c12703          	lw	a4,92(sp)
80000238:	00072683          	lw	a3,0(a4) # 80000000 <_end+0xfffefec8>
8000023c:	00470713          	addi	a4,a4,4
80000240:	04e12e23          	sw	a4,92(sp)
80000244:	0186d713          	srli	a4,a3,0x18
80000248:	01869793          	slli	a5,a3,0x18
8000024c:	00f767b3          	or	a5,a4,a5
80000250:	00ff0637          	lui	a2,0xff0
80000254:	00c6f733          	and	a4,a3,a2
80000258:	00875713          	srli	a4,a4,0x8
8000025c:	00e7e7b3          	or	a5,a5,a4
80000260:	00869693          	slli	a3,a3,0x8
80000264:	00c6f733          	and	a4,a3,a2
80000268:	00e7e7b3          	or	a5,a5,a4
8000026c:	02000613          	li	a2,32
80000270:	80000737          	lui	a4,0x80000
80000274:	00e7e463          	bltu	a5,a4,8000027c <dontadd1>
80000278:	00150513          	addi	a0,a0,1

8000027c <dontadd1>:
8000027c:	00179793          	slli	a5,a5,0x1
80000280:	fff60613          	addi	a2,a2,-1 # feffff <decode-0x7f010001>
80000284:	ffc58593          	addi	a1,a1,-4
80000288:	244000ef          	jal	ra,800004cc <match_with_rank>

8000028c <_5bit_>:
8000028c:	01b7d513          	srli	a0,a5,0x1b
80000290:	05c12703          	lw	a4,92(sp)
80000294:	00072683          	lw	a3,0(a4) # 80000000 <_end+0xfffefec8>
80000298:	00470713          	addi	a4,a4,4
8000029c:	04e12e23          	sw	a4,92(sp)
800002a0:	0186d713          	srli	a4,a3,0x18
800002a4:	01869793          	slli	a5,a3,0x18
800002a8:	00f767b3          	or	a5,a4,a5
800002ac:	00ff0637          	lui	a2,0xff0
800002b0:	00c6f733          	and	a4,a3,a2
800002b4:	00875713          	srli	a4,a4,0x8
800002b8:	00e7e7b3          	or	a5,a5,a4
800002bc:	00869693          	slli	a3,a3,0x8
800002c0:	00c6f733          	and	a4,a3,a2
800002c4:	00e7e7b3          	or	a5,a5,a4
800002c8:	02000613          	li	a2,32
800002cc:	01e7d713          	srli	a4,a5,0x1e
800002d0:	00e56533          	or	a0,a0,a4
800002d4:	ffe60613          	addi	a2,a2,-2 # fefffe <decode-0x7f010002>
800002d8:	00279793          	slli	a5,a5,0x2
800002dc:	ffb58593          	addi	a1,a1,-5
800002e0:	1ec000ef          	jal	ra,800004cc <match_with_rank>

800002e4 <inbuf_2bit>:
800002e4:	00200693          	li	a3,2
800002e8:	10d61e63          	bne	a2,a3,80000404 <inbuf_1bit>
800002ec:	06e7f063          	bgeu	a5,a4,8000034c <__4or5bit__>
800002f0:	01d7d513          	srli	a0,a5,0x1d
800002f4:	05c12703          	lw	a4,92(sp)
800002f8:	00072683          	lw	a3,0(a4)
800002fc:	00470713          	addi	a4,a4,4
80000300:	04e12e23          	sw	a4,92(sp)
80000304:	0186d713          	srli	a4,a3,0x18
80000308:	01869793          	slli	a5,a3,0x18
8000030c:	00f767b3          	or	a5,a4,a5
80000310:	00ff0637          	lui	a2,0xff0
80000314:	00c6f733          	and	a4,a3,a2
80000318:	00875713          	srli	a4,a4,0x8
8000031c:	00e7e7b3          	or	a5,a5,a4
80000320:	00869693          	slli	a3,a3,0x8
80000324:	00c6f733          	and	a4,a3,a2
80000328:	00e7e7b3          	or	a5,a5,a4
8000032c:	02000613          	li	a2,32
80000330:	80000737          	lui	a4,0x80000
80000334:	00e7e463          	bltu	a5,a4,8000033c <dontadd2>
80000338:	00150513          	addi	a0,a0,1

8000033c <dontadd2>:
8000033c:	00179793          	slli	a5,a5,0x1
80000340:	fff60613          	addi	a2,a2,-1 # feffff <decode-0x7f010001>
80000344:	ffd58593          	addi	a1,a1,-3
80000348:	184000ef          	jal	ra,800004cc <match_with_rank>

8000034c <__4or5bit__>:
8000034c:	c00006b7          	lui	a3,0xc0000
80000350:	04d7fe63          	bgeu	a5,a3,800003ac <__5bit__>
80000354:	01c7d513          	srli	a0,a5,0x1c
80000358:	05c12703          	lw	a4,92(sp)
8000035c:	00072683          	lw	a3,0(a4) # 80000000 <_end+0xfffefec8>
80000360:	00470713          	addi	a4,a4,4
80000364:	04e12e23          	sw	a4,92(sp)
80000368:	0186d713          	srli	a4,a3,0x18
8000036c:	01869793          	slli	a5,a3,0x18
80000370:	00f767b3          	or	a5,a4,a5
80000374:	00ff0637          	lui	a2,0xff0
80000378:	00c6f733          	and	a4,a3,a2
8000037c:	00875713          	srli	a4,a4,0x8
80000380:	00e7e7b3          	or	a5,a5,a4
80000384:	00869693          	slli	a3,a3,0x8
80000388:	00c6f733          	and	a4,a3,a2
8000038c:	00e7e7b3          	or	a5,a5,a4
80000390:	02000613          	li	a2,32
80000394:	01e7d713          	srli	a4,a5,0x1e
80000398:	00e56533          	or	a0,a0,a4
8000039c:	ffe60613          	addi	a2,a2,-2 # fefffe <decode-0x7f010002>
800003a0:	00279793          	slli	a5,a5,0x2
800003a4:	ffc58593          	addi	a1,a1,-4
800003a8:	124000ef          	jal	ra,800004cc <match_with_rank>

800003ac <__5bit__>:
800003ac:	01b7d513          	srli	a0,a5,0x1b
800003b0:	05c12703          	lw	a4,92(sp)
800003b4:	00072683          	lw	a3,0(a4)
800003b8:	00470713          	addi	a4,a4,4
800003bc:	04e12e23          	sw	a4,92(sp)
800003c0:	0186d713          	srli	a4,a3,0x18
800003c4:	01869793          	slli	a5,a3,0x18
800003c8:	00f767b3          	or	a5,a4,a5
800003cc:	00ff0637          	lui	a2,0xff0
800003d0:	00c6f733          	and	a4,a3,a2
800003d4:	00875713          	srli	a4,a4,0x8
800003d8:	00e7e7b3          	or	a5,a5,a4
800003dc:	00869693          	slli	a3,a3,0x8
800003e0:	00c6f733          	and	a4,a3,a2
800003e4:	00e7e7b3          	or	a5,a5,a4
800003e8:	02000613          	li	a2,32
800003ec:	01d7d713          	srli	a4,a5,0x1d
800003f0:	00e56533          	or	a0,a0,a4
800003f4:	ffd60613          	addi	a2,a2,-3 # fefffd <decode-0x7f010003>
800003f8:	00379793          	slli	a5,a5,0x3
800003fc:	ffb58593          	addi	a1,a1,-5
80000400:	0cc000ef          	jal	ra,800004cc <match_with_rank>

80000404 <inbuf_1bit>:
80000404:	04e7fa63          	bgeu	a5,a4,80000458 <___4or5bit>
80000408:	05c12703          	lw	a4,92(sp)
8000040c:	00072683          	lw	a3,0(a4)
80000410:	00470713          	addi	a4,a4,4
80000414:	04e12e23          	sw	a4,92(sp)
80000418:	0186d713          	srli	a4,a3,0x18
8000041c:	01869793          	slli	a5,a3,0x18
80000420:	00f767b3          	or	a5,a4,a5
80000424:	00ff0637          	lui	a2,0xff0
80000428:	00c6f733          	and	a4,a3,a2
8000042c:	00875713          	srli	a4,a4,0x8
80000430:	00e7e7b3          	or	a5,a5,a4
80000434:	00869693          	slli	a3,a3,0x8
80000438:	00c6f733          	and	a4,a3,a2
8000043c:	00e7e7b3          	or	a5,a5,a4
80000440:	02000613          	li	a2,32
80000444:	01e7d513          	srli	a0,a5,0x1e
80000448:	ffd58593          	addi	a1,a1,-3
8000044c:	ffe60613          	addi	a2,a2,-2 # fefffe <decode-0x7f010002>
80000450:	00279793          	slli	a5,a5,0x2
80000454:	078000ef          	jal	ra,800004cc <match_with_rank>

80000458 <___4or5bit>:
80000458:	05c12703          	lw	a4,92(sp)
8000045c:	00072683          	lw	a3,0(a4)
80000460:	00470713          	addi	a4,a4,4
80000464:	04e12e23          	sw	a4,92(sp)
80000468:	0186d713          	srli	a4,a3,0x18
8000046c:	01869793          	slli	a5,a3,0x18
80000470:	00f767b3          	or	a5,a4,a5
80000474:	00ff0637          	lui	a2,0xff0
80000478:	00c6f733          	and	a4,a3,a2
8000047c:	00875713          	srli	a4,a4,0x8
80000480:	00e7e7b3          	or	a5,a5,a4
80000484:	00869693          	slli	a3,a3,0x8
80000488:	00c6f733          	and	a4,a3,a2
8000048c:	00e7e7b3          	or	a5,a5,a4
80000490:	02000613          	li	a2,32
80000494:	80000737          	lui	a4,0x80000
80000498:	00e7fe63          	bgeu	a5,a4,800004b4 <___5bit>
8000049c:	01d7d513          	srli	a0,a5,0x1d
800004a0:	00850513          	addi	a0,a0,8
800004a4:	ffc58593          	addi	a1,a1,-4
800004a8:	ffd60613          	addi	a2,a2,-3 # fefffd <decode-0x7f010003>
800004ac:	00379793          	slli	a5,a5,0x3
800004b0:	01c000ef          	jal	ra,800004cc <match_with_rank>

800004b4 <___5bit>:
800004b4:	01c7d513          	srli	a0,a5,0x1c
800004b8:	01050513          	addi	a0,a0,16
800004bc:	ffb58593          	addi	a1,a1,-5
800004c0:	ffc60613          	addi	a2,a2,-4
800004c4:	00479793          	slli	a5,a5,0x4
800004c8:	004000ef          	jal	ra,800004cc <match_with_rank>

800004cc <match_with_rank>:
800004cc:	05812683          	lw	a3,88(sp)

800004d0 <rank0>:
800004d0:	00051a63          	bnez	a0,800004e4 <rank1>
800004d4:	00012703          	lw	a4,0(sp)
800004d8:	00469693          	slli	a3,a3,0x4
800004dc:	00e6e6b3          	or	a3,a3,a4
800004e0:	16c000ef          	jal	ra,8000064c <check_outreg_full>

800004e4 <rank1>:
800004e4:	00100713          	li	a4,1
800004e8:	00e51a63          	bne	a0,a4,800004fc <rank2>
800004ec:	00412703          	lw	a4,4(sp)
800004f0:	00469693          	slli	a3,a3,0x4
800004f4:	00e6e6b3          	or	a3,a3,a4
800004f8:	154000ef          	jal	ra,8000064c <check_outreg_full>

800004fc <rank2>:
800004fc:	00200713          	li	a4,2
80000500:	00e51a63          	bne	a0,a4,80000514 <rank3>
80000504:	00812703          	lw	a4,8(sp)
80000508:	00469693          	slli	a3,a3,0x4
8000050c:	00e6e6b3          	or	a3,a3,a4
80000510:	13c000ef          	jal	ra,8000064c <check_outreg_full>

80000514 <rank3>:
80000514:	00300713          	li	a4,3
80000518:	00e51a63          	bne	a0,a4,8000052c <rank4>
8000051c:	00c12703          	lw	a4,12(sp)
80000520:	00469693          	slli	a3,a3,0x4
80000524:	00e6e6b3          	or	a3,a3,a4
80000528:	124000ef          	jal	ra,8000064c <check_outreg_full>

8000052c <rank4>:
8000052c:	00800713          	li	a4,8
80000530:	00e51a63          	bne	a0,a4,80000544 <rank5>
80000534:	01012703          	lw	a4,16(sp)
80000538:	00469693          	slli	a3,a3,0x4
8000053c:	00e6e6b3          	or	a3,a3,a4
80000540:	10c000ef          	jal	ra,8000064c <check_outreg_full>

80000544 <rank5>:
80000544:	00900713          	li	a4,9
80000548:	00e51a63          	bne	a0,a4,8000055c <rank6>
8000054c:	01412703          	lw	a4,20(sp)
80000550:	00469693          	slli	a3,a3,0x4
80000554:	00e6e6b3          	or	a3,a3,a4
80000558:	0f4000ef          	jal	ra,8000064c <check_outreg_full>

8000055c <rank6>:
8000055c:	00a00713          	li	a4,10
80000560:	00e51a63          	bne	a0,a4,80000574 <rank7>
80000564:	01812703          	lw	a4,24(sp)
80000568:	00469693          	slli	a3,a3,0x4
8000056c:	00e6e6b3          	or	a3,a3,a4
80000570:	0dc000ef          	jal	ra,8000064c <check_outreg_full>

80000574 <rank7>:
80000574:	00b00713          	li	a4,11
80000578:	00e51a63          	bne	a0,a4,8000058c <rank8>
8000057c:	01c12703          	lw	a4,28(sp)
80000580:	00469693          	slli	a3,a3,0x4
80000584:	00e6e6b3          	or	a3,a3,a4
80000588:	0c4000ef          	jal	ra,8000064c <check_outreg_full>

8000058c <rank8>:
8000058c:	01800713          	li	a4,24
80000590:	00e51a63          	bne	a0,a4,800005a4 <rank9>
80000594:	02012703          	lw	a4,32(sp)
80000598:	00469693          	slli	a3,a3,0x4
8000059c:	00e6e6b3          	or	a3,a3,a4
800005a0:	0ac000ef          	jal	ra,8000064c <check_outreg_full>

800005a4 <rank9>:
800005a4:	01900713          	li	a4,25
800005a8:	00e51a63          	bne	a0,a4,800005bc <rank10>
800005ac:	02412703          	lw	a4,36(sp)
800005b0:	00469693          	slli	a3,a3,0x4
800005b4:	00e6e6b3          	or	a3,a3,a4
800005b8:	094000ef          	jal	ra,8000064c <check_outreg_full>

800005bc <rank10>:
800005bc:	01a00713          	li	a4,26
800005c0:	00e51a63          	bne	a0,a4,800005d4 <rank11>
800005c4:	02812703          	lw	a4,40(sp)
800005c8:	00469693          	slli	a3,a3,0x4
800005cc:	00e6e6b3          	or	a3,a3,a4
800005d0:	07c000ef          	jal	ra,8000064c <check_outreg_full>

800005d4 <rank11>:
800005d4:	01b00713          	li	a4,27
800005d8:	00e51a63          	bne	a0,a4,800005ec <rank12>
800005dc:	02c12703          	lw	a4,44(sp)
800005e0:	00469693          	slli	a3,a3,0x4
800005e4:	00e6e6b3          	or	a3,a3,a4
800005e8:	064000ef          	jal	ra,8000064c <check_outreg_full>

800005ec <rank12>:
800005ec:	01c00713          	li	a4,28
800005f0:	00e51a63          	bne	a0,a4,80000604 <rank13>
800005f4:	03012703          	lw	a4,48(sp)
800005f8:	00469693          	slli	a3,a3,0x4
800005fc:	00e6e6b3          	or	a3,a3,a4
80000600:	04c000ef          	jal	ra,8000064c <check_outreg_full>

80000604 <rank13>:
80000604:	01d00713          	li	a4,29
80000608:	00e51a63          	bne	a0,a4,8000061c <rank14>
8000060c:	03412703          	lw	a4,52(sp)
80000610:	00469693          	slli	a3,a3,0x4
80000614:	00e6e6b3          	or	a3,a3,a4
80000618:	034000ef          	jal	ra,8000064c <check_outreg_full>

8000061c <rank14>:
8000061c:	01e00713          	li	a4,30
80000620:	00e51a63          	bne	a0,a4,80000634 <rank15>
80000624:	03812703          	lw	a4,56(sp)
80000628:	00469693          	slli	a3,a3,0x4
8000062c:	00e6e6b3          	or	a3,a3,a4
80000630:	01c000ef          	jal	ra,8000064c <check_outreg_full>

80000634 <rank15>:
80000634:	01f00713          	li	a4,31
80000638:	16e51463          	bne	a0,a4,800007a0 <err>
8000063c:	03c12703          	lw	a4,60(sp)
80000640:	00469693          	slli	a3,a3,0x4
80000644:	00e6e6b3          	or	a3,a3,a4
80000648:	004000ef          	jal	ra,8000064c <check_outreg_full>

8000064c <check_outreg_full>:
8000064c:	06412503          	lw	a0,100(sp)
80000650:	00150513          	addi	a0,a0,1
80000654:	04412703          	lw	a4,68(sp)
80000658:	00171713          	slli	a4,a4,0x1
8000065c:	12a76c63          	bltu	a4,a0,80000794 <check_overflow>

80000660 <no_overflow>:
80000660:	05412703          	lw	a4,84(sp)
80000664:	ffc70713          	addi	a4,a4,-4 # 7ffffffc <_end+0xfffefec4>

80000668 <noMoreData>:
80000668:	06059463          	bnez	a1,800006d0 <full_outBuf>
8000066c:	00155513          	srli	a0,a0,0x1
80000670:	0186d713          	srli	a4,a3,0x18
80000674:	01869793          	slli	a5,a3,0x18
80000678:	00f767b3          	or	a5,a4,a5
8000067c:	00ff0637          	lui	a2,0xff0
80000680:	00c6f733          	and	a4,a3,a2
80000684:	00875713          	srli	a4,a4,0x8
80000688:	00e7e7b3          	or	a5,a5,a4
8000068c:	00869693          	slli	a3,a3,0x8
80000690:	00c6f733          	and	a4,a3,a2
80000694:	00e7e7b3          	or	a5,a5,a4
80000698:	00357613          	andi	a2,a0,3
8000069c:	02060463          	beqz	a2,800006c4 <print>
800006a0:	00100713          	li	a4,1
800006a4:	00e61463          	bne	a2,a4,800006ac <not_mod1>
800006a8:	0187d793          	srli	a5,a5,0x18

800006ac <not_mod1>:
800006ac:	00200713          	li	a4,2
800006b0:	00e61463          	bne	a2,a4,800006b8 <not_mod2>
800006b4:	0107d793          	srli	a5,a5,0x10

800006b8 <not_mod2>:
800006b8:	00300713          	li	a4,3
800006bc:	00e61463          	bne	a2,a4,800006c4 <print>
800006c0:	0087d793          	srli	a5,a5,0x8

800006c4 <print>:
800006c4:	06012683          	lw	a3,96(sp)
800006c8:	00f6a023          	sw	a5,0(a3) # c0000000 <_end+0x3ffefec8>
800006cc:	0a000e63          	beqz	zero,80000788 <Exit>

800006d0 <full_outBuf>:
800006d0:	04071863          	bnez	a4,80000720 <inpBuf_empty>
800006d4:	04f12823          	sw	a5,80(sp)
800006d8:	0186d713          	srli	a4,a3,0x18
800006dc:	01869793          	slli	a5,a3,0x18
800006e0:	00f767b3          	or	a5,a4,a5
800006e4:	00ff00b7          	lui	ra,0xff0
800006e8:	0016f733          	and	a4,a3,ra
800006ec:	00875713          	srli	a4,a4,0x8
800006f0:	00e7e7b3          	or	a5,a5,a4
800006f4:	00869693          	slli	a3,a3,0x8
800006f8:	0016f733          	and	a4,a3,ra
800006fc:	00e7e7b3          	or	a5,a5,a4
80000700:	06012683          	lw	a3,96(sp)
80000704:	00f6a023          	sw	a5,0(a3)
80000708:	00468693          	addi	a3,a3,4
8000070c:	06d12023          	sw	a3,96(sp)
80000710:	02000713          	li	a4,32
80000714:	00000693          	li	a3,0
80000718:	04e12a23          	sw	a4,84(sp)
8000071c:	05012783          	lw	a5,80(sp)

80000720 <inpBuf_empty>:
80000720:	04061863          	bnez	a2,80000770 <lastBuf>
80000724:	04d12c23          	sw	a3,88(sp)
80000728:	04e12a23          	sw	a4,84(sp)
8000072c:	05c12703          	lw	a4,92(sp)
80000730:	00072683          	lw	a3,0(a4)
80000734:	00470713          	addi	a4,a4,4
80000738:	04e12e23          	sw	a4,92(sp)
8000073c:	0186d713          	srli	a4,a3,0x18
80000740:	01869793          	slli	a5,a3,0x18
80000744:	00f767b3          	or	a5,a4,a5
80000748:	00ff0637          	lui	a2,0xff0
8000074c:	00c6f733          	and	a4,a3,a2
80000750:	00875713          	srli	a4,a4,0x8
80000754:	00e7e7b3          	or	a5,a5,a4
80000758:	00869693          	slli	a3,a3,0x8
8000075c:	00c6f733          	and	a4,a3,a2
80000760:	00e7e7b3          	or	a5,a5,a4
80000764:	02000613          	li	a2,32
80000768:	05812683          	lw	a3,88(sp)
8000076c:	05412703          	lw	a4,84(sp)

80000770 <lastBuf>:
80000770:	00b66463          	bltu	a2,a1,80000778 <decodeAgain>
80000774:	00058613          	mv	a2,a1

80000778 <decodeAgain>:
80000778:	04d12c23          	sw	a3,88(sp)
8000077c:	04e12a23          	sw	a4,84(sp)
80000780:	06a12223          	sw	a0,100(sp)
80000784:	99dff0ef          	jal	ra,80000120 <decoding_loop>

80000788 <Exit>:
80000788:	04812083          	lw	ra,72(sp)
8000078c:	04412703          	lw	a4,68(sp)
80000790:	08010113          	addi	sp,sp,128

80000794 <check_overflow>:
80000794:	00a77463          	bgeu	a4,a0,8000079c <return>
80000798:	fff00513          	li	a0,-1

8000079c <return>:
8000079c:	00008067          	ret

800007a0 <err>:
800007a0:	01234537          	lui	a0,0x1234
800007a4:	fe5ff0ef          	jal	ra,80000788 <Exit>

800007a8 <_start>:
800007a8:	80020137          	lui	sp,0x80020
800007ac:	03c000ef          	jal	ra,800007e8 <main>
800007b0:	00100073          	ebreak

800007b4 <mul8>:
800007b4:	ff810113          	addi	sp,sp,-8 # 8001fff8 <_end+0xfec0>
800007b8:	01212023          	sw	s2,0(sp)
800007bc:	01312223          	sw	s3,4(sp)
800007c0:	00000913          	li	s2,0
800007c4:	00000993          	li	s3,0

800007c8 <inc8>:
800007c8:	00898993          	addi	s3,s3,8
800007cc:	00190913          	addi	s2,s2,1
800007d0:	fea94ce3          	blt	s2,a0,800007c8 <inc8>
800007d4:	00098513          	mv	a0,s3
800007d8:	00412983          	lw	s3,4(sp)
800007dc:	00012903          	lw	s2,0(sp)
800007e0:	00810113          	addi	sp,sp,8
800007e4:	00008067          	ret

800007e8 <main>:
800007e8:	ff010113          	addi	sp,sp,-16
800007ec:	00112023          	sw	ra,0(sp)
800007f0:	f0010113          	addi	sp,sp,-256
800007f4:	00000293          	li	t0,0
800007f8:	00100313          	li	t1,1
800007fc:	00010397          	auipc	t2,0x10
80000800:	80438393          	addi	t2,t2,-2044 # 80010000 <test>
80000804:	00010e17          	auipc	t3,0x10
80000808:	814e0e13          	addi	t3,t3,-2028 # 80010018 <ans>
8000080c:	00000f93          	li	t6,0
80000810:	00400493          	li	s1,4

80000814 <loop>:
80000814:	0003ae83          	lw	t4,0(t2)
80000818:	004e8513          	addi	a0,t4,4
8000081c:	000ea583          	lw	a1,0(t4)
80000820:	00010613          	mv	a2,sp
80000824:	10000693          	li	a3,256
80000828:	fd8ff0ef          	jal	ra,80000000 <decode>
8000082c:	000e2e83          	lw	t4,0(t3)
80000830:	000ea583          	lw	a1,0(t4)
80000834:	04b51663          	bne	a0,a1,80000880 <fail>
80000838:	00000f13          	li	t5,0

8000083c <cmp>:
8000083c:	01e10933          	add	s2,sp,t5
80000840:	01ee89b3          	add	s3,t4,t5
80000844:	00092a03          	lw	s4,0(s2)
80000848:	0049aa83          	lw	s5,4(s3)
8000084c:	41e58b33          	sub	s6,a1,t5
80000850:	029b5063          	bge	s6,s1,80000870 <fword>
80000854:	000b0513          	mv	a0,s6
80000858:	f5dff0ef          	jal	ra,800007b4 <mul8>
8000085c:	fff00b93          	li	s7,-1
80000860:	00ab9bb3          	sll	s7,s7,a0
80000864:	fffbcb93          	not	s7,s7
80000868:	017a7a33          	and	s4,s4,s7
8000086c:	017afab3          	and	s5,s5,s7

80000870 <fword>:
80000870:	015a1863          	bne	s4,s5,80000880 <fail>
80000874:	004f0f13          	addi	t5,t5,4
80000878:	fcbf42e3          	blt	t5,a1,8000083c <cmp>
8000087c:	0100006f          	j	8000088c <update>

80000880 <fail>:
80000880:	00100f13          	li	t5,1
80000884:	005f1f33          	sll	t5,t5,t0
80000888:	01efefb3          	or	t6,t6,t5

8000088c <update>:
8000088c:	00128293          	addi	t0,t0,1
80000890:	00438393          	addi	t2,t2,4
80000894:	004e0e13          	addi	t3,t3,4
80000898:	f662cee3          	blt	t0,t1,80000814 <loop>
8000089c:	10010113          	addi	sp,sp,256
800008a0:	00012083          	lw	ra,0(sp)
800008a4:	01010113          	addi	sp,sp,16
800008a8:	00008067          	ret

Disassembly of section .data:

80010000 <test>:
80010000:	0030                	addi	a2,sp,8
80010002:	8001                	c.srli64	s0
80010004:	00a0                	addi	s0,sp,72
80010006:	8001                	c.srli64	s0
80010008:	00d8                	addi	a4,sp,68
8001000a:	8001                	c.srli64	s0
8001000c:	007c                	addi	a5,sp,12
8001000e:	8001                	c.srli64	s0
80010010:	0058                	addi	a4,sp,4
80010012:	8001                	c.srli64	s0
80010014:	0044                	addi	s1,sp,4
80010016:	8001                	c.srli64	s0

80010018 <ans>:
80010018:	003c                	addi	a5,sp,8
8001001a:	8001                	c.srli64	s0
8001001c:	00bc                	addi	a5,sp,72
8001001e:	8001                	c.srli64	s0
80010020:	0108                	addi	a0,sp,128
80010022:	8001                	c.srli64	s0
80010024:	0090                	addi	a2,sp,64
80010026:	8001                	c.srli64	s0
80010028:	006c                	addi	a1,sp,12
8001002a:	8001                	c.srli64	s0
8001002c:	0050                	addi	a2,sp,4
8001002e:	8001                	c.srli64	s0

80010030 <test0>:
80010030:	00000007          	0x7
80010034:	ac02                	fsd	ft0,24(sp)
80010036:	88264513          	xori	a0,a2,-1918
8001003a:	0020                	addi	s0,sp,8

8001003c <ans0>:
8001003c:	00000003          	lb	zero,0(zero) # 0 <decode-0x80000000>
80010040:	20ca                	fld	ft1,144(sp)
80010042:	0020                	addi	s0,sp,8

80010044 <test1>:
80010044:	0008                	0x8
80010046:	0000                	unimp
80010048:	abed                	j	80010642 <_end+0x50a>
8001004a:	12f0                	addi	a2,sp,364
8001004c:	1132                	slli	sp,sp,0x2c
8001004e:	4060                	lw	s0,68(s0)

80010050 <ans1>:
80010050:	0004                	0x4
80010052:	0000                	unimp
80010054:	adde                	fsd	fs7,216(sp)
80010056:	efbe                	fsw	fa5,220(sp)

80010058 <test2>:
80010058:	000e                	c.slli	zero,0x3
8001005a:	0000                	unimp
8001005c:	12af370b          	0x12af370b
80010060:	2328                	fld	fa0,64(a4)
80010062:	21899a3f 6c6315f9 	0x6c6315f921899a3f
	...

8001006c <ans2>:
8001006c:	000a                	c.slli	zero,0x2
8001006e:	0000                	unimp
80010070:	1aef05ab          	0x1aef05ab
80010074:	b3d307fb          	0xb3d307fb
80010078:	8720                	0x8720
	...

8001007c <test3>:
8001007c:	000e                	c.slli	zero,0x3
8001007e:	0000                	unimp
80010080:	4e61                	li	t3,24
80010082:	5702                	lw	a4,32(sp)
80010084:	a065                	j	8001012c <ans5+0x24>
80010086:	c1c6                	sw	a7,192(sp)
80010088:	3015                	jal	8000f8ac <update+0xf020>
8001008a:	08b8                	addi	a4,sp,88
8001008c:	c062                	sw	s8,0(sp)
	...

80010090 <ans3>:
80010090:	000a                	c.slli	zero,0x2
80010092:	0000                	unimp
80010094:	6e49                	lui	t3,0x12
80010096:	616a                	flw	ft2,152(sp)
80010098:	2065                	jal	80010140 <_end+0x8>
8001009a:	676e614b          	fnmsub.q	ft2,ft8,fs6,fa2,unknown
	...

800100a0 <test4>:
800100a0:	0018                	0x18
800100a2:	0000                	unimp
800100a4:	2760                	fld	fs0,200(a4)
800100a6:	3491                	jal	8000faea <update+0xf25e>
800100a8:	8c08437b          	0x8c08437b
800100ac:	6589                	lui	a1,0x2
800100ae:	1e890897          	auipc	a7,0x1e890
800100b2:	8b16                	mv	s6,t0
800100b4:	d1a1                	beqz	a1,8000fff4 <update+0xf768>
800100b6:	d6088303          	lb	t1,-672(a7) # 9e89fe0e <_end+0x1e88fcd6>
800100ba:	0094                	addi	a3,sp,64

800100bc <ans4>:
800100bc:	0015                	c.nop	5
800100be:	0000                	unimp
800100c0:	6542                	flw	fa0,16(sp)
800100c2:	6820                	flw	fs0,80(s0)
800100c4:	7061                	c.lui	zero,0xffff8
800100c6:	7970                	flw	fa2,116(a0)
800100c8:	6120                	flw	fs0,64(a0)
800100ca:	646e                	flw	fs0,216(sp)
800100cc:	7320                	flw	fs0,96(a4)
800100ce:	696d                	lui	s2,0x1b
800100d0:	656c                	flw	fa1,76(a0)
800100d2:	3a20                	fld	fs0,112(a2)
800100d4:	0029                	c.nop	10
	...

800100d8 <test5>:
800100d8:	0000002b          	0x2b
800100dc:	485f2067          	0x485f2067
800100e0:	a128                	fsd	fa0,64(a0)
800100e2:	1362                	slli	t1,t1,0x38
800100e4:	3038                	fld	fa4,96(s0)
800100e6:	3234                	fld	fa3,96(a2)
800100e8:	9838                	0x9838
800100ea:	0945                	addi	s2,s2,17
800100ec:	7d24                	flw	fs1,120(a0)
800100ee:	0430                	addi	a2,sp,520
800100f0:	c06c4c9b          	0xc06c4c9b
800100f4:	67f1                	lui	a5,0x1c
800100f6:	8929                	andi	a0,a0,10
800100f8:	4120                	lw	s0,64(a0)
800100fa:	9a49                	andi	a2,a2,-14
800100fc:	2116                	fld	ft2,320(sp)
800100fe:	d131                	beqz	a0,80010042 <ans0+0x6>
80010100:	c5a4b383          	0xc5a4b383
80010104:	0509                	addi	a0,a0,2
80010106:	007c                	addi	a5,sp,12

80010108 <ans5>:
80010108:	002c                	addi	a1,sp,8
8001010a:	0000                	unimp
8001010c:	6854                	flw	fa3,20(s0)
8001010e:	2065                	jal	800101b6 <_end+0x7e>
80010110:	7571                	lui	a0,0xffffc
80010112:	6369                	lui	t1,0x1a
80010114:	7262206b          	0x7262206b
80010118:	206e776f          	jal	a4,800f731e <_end+0xe71e6>
8001011c:	6f66                	flw	ft10,88(sp)
8001011e:	2078                	fld	fa4,192(s0)
80010120:	756a                	flw	fa0,184(sp)
80010122:	706d                	c.lui	zero,0xffffb
80010124:	766f2073          	csrs	0x766,t5
80010128:	7265                	lui	tp,0xffff9
8001012a:	7420                	flw	fs0,104(s0)
8001012c:	6568                	flw	fa0,76(a0)
8001012e:	6c20                	flw	fs0,88(s0)
80010130:	7a61                	lui	s4,0xffff8
80010132:	2079                	jal	800101c0 <_end+0x88>
80010134:	6f64                	flw	fs1,92(a4)
80010136:	          	0x2e67

Disassembly of section .riscv.attributes:

00000000 <.riscv.attributes>:
   0:	2d41                	jal	690 <decode-0x7ffff970>
   2:	0000                	unimp
   4:	7200                	flw	fs0,32(a2)
   6:	7369                	lui	t1,0xffffa
   8:	01007663          	bgeu	zero,a6,14 <decode-0x7fffffec>
   c:	00000023          	sb	zero,0(zero) # 0 <decode-0x80000000>
  10:	7205                	lui	tp,0xfffe1
  12:	3376                	fld	ft6,376(sp)
  14:	6932                	flw	fs2,12(sp)
  16:	7032                	flw	ft0,44(sp)
  18:	5f30                	lw	a2,120(a4)
  1a:	326d                	jal	fffff9c4 <_end+0x7ffef88c>
  1c:	3070                	fld	fa2,224(s0)
  1e:	615f 7032 5f30      	0x5f307032615f
  24:	3266                	fld	ft4,120(sp)
  26:	3070                	fld	fa2,224(s0)
  28:	645f 7032 0030      	0x307032645f
